; Function Attrs: nounwind uwtable
define dso_local noundef i64 @rdbWriteRaw(ptr noundef %0, ptr noundef %1, i64 noundef %2) local_unnamed_addr #0 {
  %.not = icmp eq ptr %0, null
  br i1 %.not, label %rioWrite.exit, label %4

4:                                                ; preds = %3
  %5 = getelementptr inbounds nuw i8, ptr %0, i64 48
  %6 = load i64, ptr %5, align 8, !tbaa !53
  %7 = and i64 %6, 6
  %.not.i = icmp eq i64 %7, 0
  br i1 %.not.i, label %.preheader.i, label %rioWrite.exit

.preheader.i:                                     ; preds = %4
  %.not3137.i = icmp eq i64 %2, 0
  br i1 %.not3137.i, label %rioWrite.exit, label %.lr.ph.i

.lr.ph.i:                                         ; preds = %.preheader.i
  %8 = getelementptr inbounds nuw i8, ptr %0, i64 64
  %9 = getelementptr inbounds nuw i8, ptr %0, i64 32
  %10 = getelementptr inbounds nuw i8, ptr %0, i64 8
  %11 = getelementptr inbounds nuw i8, ptr %0, i64 56
  br label %12

12:                                               ; preds = %24, %.lr.ph.i
  %.02539.i = phi i64 [ %2, %.lr.ph.i ], [ %26, %24 ]
  %.02738.i = phi ptr [ %1, %.lr.ph.i ], [ %25, %24 ]
  %13 = load i64, ptr %8, align 8, !tbaa !55
  %.not32.not.i = icmp eq i64 %13, 0
  %14 = tail call i64 @llvm.umin.i64(i64 %13, i64 %.02539.i)
  %15 = select i1 %.not32.not.i, i64 %.02539.i, i64 %14
  %16 = load ptr, ptr %9, align 8, !tbaa !56
  %.not33.i = icmp eq ptr %16, null
  br i1 %.not33.i, label %18, label %17

17:                                               ; preds = %12
  tail call void %16(ptr noundef nonnull %0, ptr noundef %.02738.i, i64 noundef %15) #23
  br label %18

18:                                               ; preds = %17, %12
  %19 = load ptr, ptr %10, align 8, !tbaa !57
  %20 = tail call i64 %19(ptr noundef nonnull %0, ptr noundef %.02738.i, i64 noundef %15) #23
  %21 = icmp eq i64 %20, 0
  br i1 %21, label %.thread.i, label %24

.thread.i:                                        ; preds = %18
  %22 = load i64, ptr %5, align 8, !tbaa !53
  %23 = or i64 %22, 2
  store i64 %23, ptr %5, align 8, !tbaa !53
  br label %rioWrite.exit

24:                                               ; preds = %18
  %25 = getelementptr inbounds nuw i8, ptr %.02738.i, i64 %15
  %26 = sub i64 %.02539.i, %15
  %27 = load i64, ptr %11, align 8, !tbaa !58
  %28 = add i64 %27, %15
  store i64 %28, ptr %11, align 8, !tbaa !58
  %.not31.i = icmp eq i64 %26, 0
  br i1 %.not31.i, label %rioWrite.exit, label %12

rioWrite.exit:                                    ; preds = %24, %.thread.i, %4, %3, %.preheader.i
  %.0 = phi i64 [ 0, %.preheader.i ], [ %2, %3 ], [ -1, %4 ], [ -1, %.thread.i ], [ %2, %24 ]
  ret i64 %.0
}